target datalayout = "e-m:e-p270:32:32-p271:32:32-p272:64:64-i64:64-i128:128-f80:128-n8:16:32:64-S128"
target triple = "x86_64-pc-linux-gnu"

%struct.XML_Parser_Struct = type { i32, ptr, ptr, ptr, ptr, ptr, ptr, ptr, ptr, ptr, ptr, ptr, ptr, ptr, ptr }
%struct._xmlParserCtxt = type { ptr, ptr, ptr, i32, i32, ptr, ptr, i32, i32, ptr, i32, i32, ptr, ptr, i32, i32, ptr, i32, %struct._xmlParserNodeInfoSeq, i32, i32, i32, i32, i32, i32, %struct._xmlValidCtxt, i32, i32, ptr, ptr, i32, i32, ptr, i64, i64, i32, i32, i32, ptr, ptr, ptr, ptr, i32, i32, ptr, i32, ptr, i32, i32, i32, i32, ptr, i32, i32, ptr, i32, i32, ptr, ptr, i32, i32, ptr, ptr, ptr, i32, i32, i32, ptr, ptr, ptr, ptr, ptr, i32, i32, i32, i32, ptr, i32, ptr, %struct._xmlError, i32, i64, i64, ptr, i32, i32, ptr, i32, i64 }
%struct._xmlParserNodeInfoSeq = type { i64, i64, ptr }
%struct._xmlValidCtxt = type { ptr, ptr, ptr, ptr, i32, i32, ptr, i32, ptr, i32, ptr, i32, i32, ptr, ptr, ptr }
%struct._xmlError = type { i32, i32, ptr, i32, ptr, i32, ptr, ptr, ptr, i32, i32, ptr, ptr }
%struct._xmlSAXHandler = type { ptr, ptr, ptr, ptr, ptr, ptr, ptr, ptr, ptr, ptr, ptr, ptr, ptr, ptr, ptr, ptr, ptr, ptr, ptr, ptr, ptr, ptr, ptr, ptr, ptr, ptr, ptr, i32, ptr, ptr, ptr, ptr }

; Function Attrs: alwaysinline nounwind uwtable
define internal void @php_libxml_sanitize_parse_ctxt_options(ptr noundef %0) #4 {
  %2 = alloca ptr, align 8
  store ptr %0, ptr %2, align 8, !tbaa !45
  %3 = load ptr, ptr %2, align 8, !tbaa !45
  %4 = getelementptr inbounds nuw %struct._xmlParserCtxt, ptr %3, i32 0, i32 52
  store i32 0, ptr %4, align 8, !tbaa !46
  %5 = load ptr, ptr %2, align 8, !tbaa !45
  %6 = getelementptr inbounds nuw %struct._xmlParserCtxt, ptr %5, i32 0, i32 24
  store i32 0, ptr %6, align 4, !tbaa !47
  %7 = load ptr, ptr %2, align 8, !tbaa !45
  %8 = getelementptr inbounds nuw %struct._xmlParserCtxt, ptr %7, i32 0, i32 50
  store i32 0, ptr %8, align 4, !tbaa !48
  %9 = load ptr, ptr %2, align 8, !tbaa !45
  %10 = getelementptr inbounds nuw %struct._xmlParserCtxt, ptr %9, i32 0, i32 4
  store i32 0, ptr %10, align 4, !tbaa !49
  %11 = load ptr, ptr %2, align 8, !tbaa !45
  %12 = getelementptr inbounds nuw %struct._xmlParserCtxt, ptr %11, i32 0, i32 53
  store i32 0, ptr %12, align 4, !tbaa !50
  %13 = load ptr, ptr %2, align 8, !tbaa !45
  %14 = getelementptr inbounds nuw %struct._xmlParserCtxt, ptr %13, i32 0, i32 35
  store i32 1, ptr %14, align 8, !tbaa !51
  %15 = load ptr, ptr %2, align 8, !tbaa !45
  %16 = getelementptr inbounds nuw %struct._xmlParserCtxt, ptr %15, i32 0, i32 73
  store i32 0, ptr %16, align 4, !tbaa !52
  ret void
}

; Function Attrs: nounwind uwtable
define dso_local ptr @php_XML_ParserCreate_MM(ptr noundef %0, ptr noundef %1, ptr noundef %2) #0 {
  %4 = alloca ptr, align 8
  %5 = alloca ptr, align 8
  %6 = alloca ptr, align 8
  %7 = alloca ptr, align 8
  %8 = alloca ptr, align 8
  %9 = alloca i32, align 4
  store ptr %0, ptr %5, align 8, !tbaa !4
  store ptr %1, ptr %6, align 8, !tbaa !9
  store ptr %2, ptr %7, align 8, !tbaa !4
  call void @llvm.lifetime.start.p0(i64 8, ptr %8) #8
  %10 = call noalias ptr @_emalloc_128()
  store ptr %10, ptr %8, align 8, !tbaa !11
  %11 = load ptr, ptr %8, align 8, !tbaa !11
  call void @llvm.memset.p0.i64(ptr align 8 %11, i8 0, i64 120, i1 false)
  %12 = load ptr, ptr %8, align 8, !tbaa !11
  %13 = getelementptr inbounds nuw %struct.XML_Parser_Struct, ptr %12, i32 0, i32 0
  store i32 0, ptr %13, align 8, !tbaa !13
  %14 = load ptr, ptr %8, align 8, !tbaa !11
  %15 = getelementptr inbounds nuw %struct.XML_Parser_Struct, ptr %14, i32 0, i32 1
  store ptr null, ptr %15, align 8, !tbaa !17
  %16 = load ptr, ptr %8, align 8, !tbaa !11
  %17 = call ptr @xmlCreatePushParserCtxt(ptr noundef @php_xml_compat_handlers, ptr noundef %16, ptr noundef null, i32 noundef 0, ptr noundef null)
  %18 = load ptr, ptr %8, align 8, !tbaa !11
  %19 = getelementptr inbounds nuw %struct.XML_Parser_Struct, ptr %18, i32 0, i32 3
  store ptr %17, ptr %19, align 8, !tbaa !18
  %20 = load ptr, ptr %8, align 8, !tbaa !11
  %21 = getelementptr inbounds nuw %struct.XML_Parser_Struct, ptr %20, i32 0, i32 3
  %22 = load ptr, ptr %21, align 8, !tbaa !18
  %23 = icmp eq ptr %22, null
  br i1 %23, label %24, label %26

24:                                               ; preds = %3
  %25 = load ptr, ptr %8, align 8, !tbaa !11
  call void @_efree(ptr noundef %25)
  store ptr null, ptr %4, align 8
  store i32 1, ptr %9, align 4
  br label %64

26:                                               ; preds = %3
  %27 = load ptr, ptr %8, align 8, !tbaa !11
  %28 = getelementptr inbounds nuw %struct.XML_Parser_Struct, ptr %27, i32 0, i32 3
  %29 = load ptr, ptr %28, align 8, !tbaa !18
  call void @php_libxml_sanitize_parse_ctxt_options(ptr noundef %29)
  %30 = load ptr, ptr %8, align 8, !tbaa !11
  %31 = getelementptr inbounds nuw %struct.XML_Parser_Struct, ptr %30, i32 0, i32 3
  %32 = load ptr, ptr %31, align 8, !tbaa !18
  %33 = call i32 @xmlCtxtUseOptions(ptr noundef %32, i32 noundef 1048578)
  %34 = load ptr, ptr %8, align 8, !tbaa !11
  %35 = getelementptr inbounds nuw %struct.XML_Parser_Struct, ptr %34, i32 0, i32 3
  %36 = load ptr, ptr %35, align 8, !tbaa !18
  %37 = getelementptr inbounds nuw %struct._xmlParserCtxt, ptr %36, i32 0, i32 3
  store i32 0, ptr %37, align 8, !tbaa !19
  %38 = load ptr, ptr %7, align 8, !tbaa !4
  %39 = icmp ne ptr %38, null
  br i1 %39, label %40, label %55

40:                                               ; preds = %26
  %41 = load ptr, ptr %8, align 8, !tbaa !11
  %42 = getelementptr inbounds nuw %struct.XML_Parser_Struct, ptr %41, i32 0, i32 3
  %43 = load ptr, ptr %42, align 8, !tbaa !18
  %44 = getelementptr inbounds nuw %struct._xmlParserCtxt, ptr %43, i32 0, i32 0
  %45 = load ptr, ptr %44, align 8, !tbaa !41
  %46 = getelementptr inbounds nuw %struct._xmlSAXHandler, ptr %45, i32 0, i32 27
  %47 = load i32, ptr %46, align 8, !tbaa !42
  %48 = icmp eq i32 %47, -554844497
  call void @llvm.assume(i1 %48)
  %49 = load ptr, ptr %8, align 8, !tbaa !11
  %50 = getelementptr inbounds nuw %struct.XML_Parser_Struct, ptr %49, i32 0, i32 0
  store i32 1, ptr %50, align 8, !tbaa !13
  %51 = load ptr, ptr %7, align 8, !tbaa !4
  %52 = call ptr @xmlStrdup(ptr noundef %51)
  %53 = load ptr, ptr %8, align 8, !tbaa !11
  %54 = getelementptr inbounds nuw %struct.XML_Parser_Struct, ptr %53, i32 0, i32 1
  store ptr %52, ptr %54, align 8, !tbaa !17
  br label %62

55:                                               ; preds = %26
  %56 = load ptr, ptr %8, align 8, !tbaa !11
  %57 = getelementptr inbounds nuw %struct.XML_Parser_Struct, ptr %56, i32 0, i32 3
  %58 = load ptr, ptr %57, align 8, !tbaa !18
  %59 = getelementptr inbounds nuw %struct._xmlParserCtxt, ptr %58, i32 0, i32 0
  %60 = load ptr, ptr %59, align 8, !tbaa !41
  %61 = getelementptr inbounds nuw %struct._xmlSAXHandler, ptr %60, i32 0, i32 27
  store i32 1, ptr %61, align 8, !tbaa !42
  br label %62

62:                                               ; preds = %55, %40
  %63 = load ptr, ptr %8, align 8, !tbaa !11
  store ptr %63, ptr %4, align 8
  store i32 1, ptr %9, align 4
  br label %64

64:                                               ; preds = %62, %24
  call void @llvm.lifetime.end.p0(i64 8, ptr %8) #8
  %65 = load ptr, ptr %4, align 8
  ret ptr %65
}