; Function Attrs: nounwind uwtable
define dso_local noundef ptr @php_XML_ParserCreate_MM(ptr noundef readnone captures(none) %0, ptr noundef readnone captures(none) %1, ptr noundef %2) local_unnamed_addr #0 {
  %4 = tail call noalias ptr @_emalloc_128() #11
  %5 = getelementptr inbounds nuw i8, ptr %4, i64 8
  tail call void @llvm.memset.p0.i64(ptr noundef nonnull align 8 dereferenceable(120) %4, i8 0, i64 120, i1 false)
  %6 = tail call ptr @xmlCreatePushParserCtxt(ptr noundef nonnull @php_xml_compat_handlers, ptr noundef nonnull %4, ptr noundef null, i32 noundef 0, ptr noundef null) #11
  %7 = getelementptr inbounds nuw i8, ptr %4, i64 24
  store ptr %6, ptr %7, align 8, !tbaa !4
  %8 = icmp eq ptr %6, null
  br i1 %8, label %9, label %10

9:                                                ; preds = %3
  tail call void @_efree(ptr noundef nonnull %4) #11
  br label %28

10:                                               ; preds = %3
  %11 = getelementptr inbounds nuw i8, ptr %6, i64 432
  store i32 0, ptr %11, align 8, !tbaa !12
  %12 = getelementptr inbounds nuw i8, ptr %6, i64 156
  store i32 0, ptr %12, align 4, !tbaa !34
  %13 = getelementptr inbounds nuw i8, ptr %6, i64 420
  store i32 0, ptr %13, align 4, !tbaa !35
  %14 = getelementptr inbounds nuw i8, ptr %6, i64 28
  store i32 0, ptr %14, align 4, !tbaa !36
  %15 = getelementptr inbounds nuw i8, ptr %6, i64 436
  store i32 0, ptr %15, align 4, !tbaa !37
  %16 = getelementptr inbounds nuw i8, ptr %6, i64 328
  store i32 1, ptr %16, align 8, !tbaa !38
  %17 = getelementptr inbounds nuw i8, ptr %6, i64 564
  store i32 0, ptr %17, align 4, !tbaa !39
  %18 = tail call i32 @xmlCtxtUseOptions(ptr noundef nonnull %6, i32 noundef 1048578) #11
  %19 = load ptr, ptr %7, align 8, !tbaa !4
  %20 = getelementptr inbounds nuw i8, ptr %19, i64 24
  store i32 0, ptr %20, align 8, !tbaa !40
  %.not = icmp eq ptr %2, null
  %21 = load ptr, ptr %19, align 8, !tbaa !41
  %22 = getelementptr inbounds nuw i8, ptr %21, i64 216
  br i1 %.not, label %27, label %23

23:                                               ; preds = %10
  %24 = load i32, ptr %22, align 8, !tbaa !42
  %25 = icmp eq i32 %24, -554844497
  tail call void @llvm.assume(i1 %25)
  store i32 1, ptr %4, align 8, !tbaa !44
  %26 = tail call ptr @xmlStrdup(ptr noundef nonnull %2) #11
  store ptr %26, ptr %5, align 8, !tbaa !45
  br label %28

27:                                               ; preds = %10
  store i32 1, ptr %22, align 8, !tbaa !42
  br label %28

28:                                               ; preds = %23, %27, %9
  %.0 = phi ptr [ null, %9 ], [ %4, %27 ], [ %4, %23 ]
  ret ptr %.0
}